; Function Attrs: mustprogress uwtable
define hidden void @_ZN19OpenColorIO_v2_4dev14CreateOffsetOpERNS_10OpRcPtrVecEPKdNS_18TransformDirectionE(ptr noundef nonnull align 8 dereferenceable(144) %ops, ptr noundef %offset4, i32 noundef %direction) local_unnamed_addr #3 {
entry:
  %m44.i = alloca [16 x double], align 16
  call void @llvm.lifetime.start.p0(i64 128, ptr nonnull %m44.i)
  call void @llvm.memset.p0.i64(ptr noundef nonnull align 16 dereferenceable(128) %m44.i, i8 0, i64 128, i1 false)
  store double 1.000000e+00, ptr %m44.i, align 16
  %arrayidx3.i = getelementptr inbounds i8, ptr %m44.i, i64 40
  store double 1.000000e+00, ptr %arrayidx3.i, align 8
  %arrayidx5.i = getelementptr inbounds i8, ptr %m44.i, i64 80
  store double 1.000000e+00, ptr %arrayidx5.i, align 16
  %arrayidx7.i = getelementptr inbounds i8, ptr %m44.i, i64 120
  store double 1.000000e+00, ptr %arrayidx7.i, align 8
  call void @_ZN19OpenColorIO_v2_4dev20CreateMatrixOffsetOpERNS_10OpRcPtrVecEPKdS3_NS_18TransformDirectionE(ptr noundef nonnull align 8 dereferenceable(144) %ops, ptr noundef nonnull %m44.i, ptr noundef %offset4, i32 noundef %direction)
  call void @llvm.lifetime.end.p0(i64 128, ptr nonnull %m44.i)
  ret void
}